(dp0
Vengine
p1
S'pdflatex'
p2
sVpackages
p3
c__builtin__
set
p4
((lp5
Vmdwlist
p6
aVgeometry
p7
aVtgpagella
p8
aVtextcomp
p9
aVfontenc
p10
aVinputenc
p11
atp12
Rp13
sVfiles_with_guttermarks
p14
g4
((lp15
S'resume.tex'
p16
atp17
Rp18
sVsynctex
p19
I01
s.